target datalayout = "e-m:e-p270:32:32-p271:32:32-p272:64:64-i64:64-i128:128-f80:128-n8:16:32:64-S128"
target triple = "x86_64-pc-linux-gnu"

%struct._e_guid_t = type { i32, i16, i16, [8 x i8] }
%struct.decode_dcerpc_bind_values_s = type { %struct._address, %struct._address, i32, i32, i32, i16, i64, ptr, %struct._e_guid_t, i16 }
%struct._address = type { i32, i32, ptr, ptr }
%struct._guid_key = type { %struct._e_guid_t, i16 }

@decode_dcerpc_bindings = internal global ptr null, align 8

; Function Attrs: inlinehint nounwind null_pointer_is_valid sspstrong uwtable
define internal void @clear_address(ptr noundef %0) #12 {
  %2 = alloca ptr, align 8
  store ptr %0, ptr %2, align 8
  %3 = load ptr, ptr %2, align 8
  %4 = getelementptr inbounds nuw %struct._address, ptr %3, i32 0, i32 0
  store i32 0, ptr %4, align 8
  %5 = load ptr, ptr %2, align 8
  %6 = getelementptr inbounds nuw %struct._address, ptr %5, i32 0, i32 1
  store i32 0, ptr %6, align 4
  %7 = load ptr, ptr %2, align 8
  %8 = getelementptr inbounds nuw %struct._address, ptr %7, i32 0, i32 2
  store ptr null, ptr %8, align 8
  %9 = load ptr, ptr %2, align 8
  %10 = getelementptr inbounds nuw %struct._address, ptr %9, i32 0, i32 3
  store ptr null, ptr %10, align 8
  ret void
}

; Function Attrs: inlinehint null_pointer_is_valid sspstrong uwtable
define internal void @alloc_address_wmem(ptr noundef %0, ptr noundef %1, i32 noundef %2, i32 noundef %3, ptr noundef %4) #11 {
  %6 = alloca ptr, align 8
  %7 = alloca ptr, align 8
  %8 = alloca i32, align 4
  %9 = alloca i32, align 4
  %10 = alloca ptr, align 8
  store ptr %0, ptr %6, align 8
  store ptr %1, ptr %7, align 8
  store i32 %2, ptr %8, align 4
  store i32 %3, ptr %9, align 4
  store ptr %4, ptr %10, align 8
  br label %11

11:                                               ; preds = %5
  br label %12

12:                                               ; preds = %11
  %13 = load ptr, ptr %7, align 8
  call void @clear_address(ptr noundef %13)
  %14 = load i32, ptr %8, align 4
  %15 = load ptr, ptr %7, align 8
  %16 = getelementptr inbounds nuw %struct._address, ptr %15, i32 0, i32 0
  store i32 %14, ptr %16, align 8
  %17 = load i32, ptr %9, align 4
  %18 = icmp eq i32 %17, 0
  br i1 %18, label %19, label %22

19:                                               ; preds = %12
  br label %20

20:                                               ; preds = %19
  br label %21

21:                                               ; preds = %20
  br label %39

22:                                               ; preds = %12
  br label %23

23:                                               ; preds = %22
  br label %24

24:                                               ; preds = %23
  br label %25

25:                                               ; preds = %24
  br label %26

26:                                               ; preds = %25
  %27 = load ptr, ptr %6, align 8
  %28 = load ptr, ptr %10, align 8
  %29 = load i32, ptr %9, align 4
  %30 = sext i32 %29 to i64
  %31 = call ptr @wmem_memdup(ptr noundef %27, ptr noundef %28, i64 noundef %30) #26
  %32 = load ptr, ptr %7, align 8
  %33 = getelementptr inbounds nuw %struct._address, ptr %32, i32 0, i32 3
  store ptr %31, ptr %33, align 8
  %34 = load ptr, ptr %7, align 8
  %35 = getelementptr inbounds nuw %struct._address, ptr %34, i32 0, i32 2
  store ptr %31, ptr %35, align 8
  %36 = load i32, ptr %9, align 4
  %37 = load ptr, ptr %7, align 8
  %38 = getelementptr inbounds nuw %struct._address, ptr %37, i32 0, i32 1
  store i32 %36, ptr %38, align 4
  br label %39

39:                                               ; preds = %26, %21
  ret void
}

; Function Attrs: inlinehint null_pointer_is_valid sspstrong uwtable
define internal void @copy_address_wmem(ptr noundef %0, ptr noundef %1, ptr noundef %2) #11 {
  %4 = alloca ptr, align 8
  %5 = alloca ptr, align 8
  %6 = alloca ptr, align 8
  store ptr %0, ptr %4, align 8
  store ptr %1, ptr %5, align 8
  store ptr %2, ptr %6, align 8
  %7 = load ptr, ptr %4, align 8
  %8 = load ptr, ptr %5, align 8
  %9 = load ptr, ptr %6, align 8
  %10 = getelementptr inbounds nuw %struct._address, ptr %9, i32 0, i32 0
  %11 = load i32, ptr %10, align 8
  %12 = load ptr, ptr %6, align 8
  %13 = getelementptr inbounds nuw %struct._address, ptr %12, i32 0, i32 1
  %14 = load i32, ptr %13, align 4
  %15 = load ptr, ptr %6, align 8
  %16 = getelementptr inbounds nuw %struct._address, ptr %15, i32 0, i32 2
  %17 = load ptr, ptr %16, align 8
  call void @alloc_address_wmem(ptr noundef %7, ptr noundef %8, i32 noundef %11, i32 noundef %14, ptr noundef %17)
  ret void
}

; Function Attrs: inlinehint null_pointer_is_valid sspstrong uwtable
define internal void @copy_address(ptr noundef %0, ptr noundef %1) #11 {
  %3 = alloca ptr, align 8
  %4 = alloca ptr, align 8
  store ptr %0, ptr %3, align 8
  store ptr %1, ptr %4, align 8
  %5 = load ptr, ptr %3, align 8
  %6 = load ptr, ptr %4, align 8
  call void @copy_address_wmem(ptr noundef null, ptr noundef %5, ptr noundef %6)
  ret void
}

; Function Attrs: null_pointer_is_valid sspstrong uwtable
define internal zeroext i1 @dcerpc_decode_as_change(ptr noundef %0, ptr noundef %1, ptr noundef %2, ptr noundef %3) #0 {
  %5 = alloca ptr, align 8
  %6 = alloca ptr, align 8
  %7 = alloca ptr, align 8
  %8 = alloca ptr, align 8
  %9 = alloca ptr, align 8
  %10 = alloca ptr, align 8
  %11 = alloca ptr, align 8
  %12 = alloca i64, align 8
  %13 = alloca i64, align 8
  %14 = alloca ptr, align 8
  %15 = alloca ptr, align 8
  store ptr %0, ptr %5, align 8
  store ptr %1, ptr %6, align 8
  store ptr %2, ptr %7, align 8
  store ptr %3, ptr %8, align 8
  call void @llvm.lifetime.start.p0(i64 8, ptr %9) #19
  %16 = load ptr, ptr %6, align 8
  store ptr %16, ptr %9, align 8
  call void @llvm.lifetime.start.p0(i64 8, ptr %10) #19
  call void @llvm.lifetime.start.p0(i64 8, ptr %11) #19
  %17 = load ptr, ptr %7, align 8
  store ptr %17, ptr %11, align 8
  %18 = load ptr, ptr %5, align 8
  %19 = load ptr, ptr %9, align 8
  %20 = call zeroext i1 @decode_dcerpc_binding_reset(ptr noundef %18, ptr noundef %19)
  call void @llvm.lifetime.start.p0(i64 8, ptr %12) #19
  store i64 1, ptr %12, align 8
  call void @llvm.lifetime.start.p0(i64 8, ptr %13) #19
  store i64 104, ptr %13, align 8
  call void @llvm.lifetime.start.p0(i64 8, ptr %14) #19
  %21 = load i64, ptr %13, align 8
  %22 = icmp eq i64 %21, 1
  br i1 %22, label %23, label %26

23:                                               ; preds = %4
  %24 = load i64, ptr %12, align 8
  %25 = call noalias ptr @g_malloc(i64 noundef %24) #20
  store ptr %25, ptr %14, align 8
  br label %47

26:                                               ; preds = %4
  %27 = load i64, ptr %12, align 8
  %28 = call i1 @llvm.is.constant.i64(i64 %27)
  br i1 %28, label %29, label %42

29:                                               ; preds = %26
  %30 = load i64, ptr %13, align 8
  %31 = icmp eq i64 %30, 0
  br i1 %31, label %37, label %32

32:                                               ; preds = %29
  %33 = load i64, ptr %12, align 8
  %34 = load i64, ptr %13, align 8
  %35 = udiv i64 -1, %34
  %36 = icmp ule i64 %33, %35
  br i1 %36, label %37, label %42

37:                                               ; preds = %32, %29
  %38 = load i64, ptr %12, align 8
  %39 = load i64, ptr %13, align 8
  %40 = mul i64 %38, %39
  %41 = call noalias ptr @g_malloc(i64 noundef %40) #20
  store ptr %41, ptr %14, align 8
  br label %46

42:                                               ; preds = %32, %26
  %43 = load i64, ptr %12, align 8
  %44 = load i64, ptr %13, align 8
  %45 = call noalias ptr @g_malloc_n(i64 noundef %43, i64 noundef %44) #21
  store ptr %45, ptr %14, align 8
  br label %46

46:                                               ; preds = %42, %37
  br label %47

47:                                               ; preds = %46, %23
  %48 = load ptr, ptr %14, align 8
  store ptr %48, ptr %15, align 8
  call void @llvm.lifetime.end.p0(i64 8, ptr %14) #19
  call void @llvm.lifetime.end.p0(i64 8, ptr %13) #19
  call void @llvm.lifetime.end.p0(i64 8, ptr %12) #19
  %49 = load ptr, ptr %15, align 8
  store ptr %49, ptr %10, align 8
  %50 = load ptr, ptr %10, align 8
  %51 = load ptr, ptr %9, align 8
  call void @llvm.memcpy.p0.p0.i64(ptr align 8 %50, ptr align 8 %51, i64 104, i1 false)
  %52 = load ptr, ptr %10, align 8
  %53 = getelementptr inbounds nuw %struct.decode_dcerpc_bind_values_s, ptr %52, i32 0, i32 0
  %54 = load ptr, ptr %9, align 8
  %55 = getelementptr inbounds nuw %struct.decode_dcerpc_bind_values_s, ptr %54, i32 0, i32 0
  call void @copy_address(ptr noundef %53, ptr noundef %55)
  %56 = load ptr, ptr %10, align 8
  %57 = getelementptr inbounds nuw %struct.decode_dcerpc_bind_values_s, ptr %56, i32 0, i32 1
  %58 = load ptr, ptr %9, align 8
  %59 = getelementptr inbounds nuw %struct.decode_dcerpc_bind_values_s, ptr %58, i32 0, i32 1
  call void @copy_address(ptr noundef %57, ptr noundef %59)
  %60 = load ptr, ptr %8, align 8
  %61 = call ptr @g_string_new(ptr noundef %60)
  %62 = load ptr, ptr %10, align 8
  %63 = getelementptr inbounds nuw %struct.decode_dcerpc_bind_values_s, ptr %62, i32 0, i32 7
  store ptr %61, ptr %63, align 8
  %64 = load ptr, ptr %10, align 8
  %65 = getelementptr inbounds nuw %struct.decode_dcerpc_bind_values_s, ptr %64, i32 0, i32 8
  %66 = load ptr, ptr %11, align 8
  %67 = getelementptr inbounds nuw %struct._guid_key, ptr %66, i32 0, i32 0
  call void @llvm.memcpy.p0.p0.i64(ptr align 8 %65, ptr align 4 %67, i64 16, i1 false)
  %68 = load ptr, ptr %11, align 8
  %69 = getelementptr inbounds nuw %struct._guid_key, ptr %68, i32 0, i32 1
  %70 = load i16, ptr %69, align 4
  %71 = load ptr, ptr %10, align 8
  %72 = getelementptr inbounds nuw %struct.decode_dcerpc_bind_values_s, ptr %71, i32 0, i32 9
  store i16 %70, ptr %72, align 8
  %73 = load ptr, ptr @decode_dcerpc_bindings, align 8
  %74 = load ptr, ptr %10, align 8
  %75 = call ptr @g_slist_append(ptr noundef %73, ptr noundef %74)
  store ptr %75, ptr @decode_dcerpc_bindings, align 8
  call void @llvm.lifetime.end.p0(i64 8, ptr %11) #19
  call void @llvm.lifetime.end.p0(i64 8, ptr %10) #19
  call void @llvm.lifetime.end.p0(i64 8, ptr %9) #19
  ret i1 false
}