; Function Attrs: null_pointer_is_valid sspstrong uwtable
define internal noundef zeroext i1 @dcerpc_decode_as_change(ptr readnone captures(none) %0, ptr noundef %1, ptr noundef readonly captures(none) %2, ptr noundef %3) #0 {
  %5 = tail call zeroext i1 @decode_dcerpc_binding_reset(ptr poison, ptr noundef %1)
  %6 = tail call noalias dereferenceable_or_null(104) ptr @g_malloc(i64 noundef 104) #17
  tail call void @llvm.memcpy.p0.p0.i64(ptr noundef align 8 dereferenceable(104) %6, ptr noundef align 8 dereferenceable(104) %1, i64 104, i1 false)
  %7 = load i32, ptr %1, align 8
  %8 = getelementptr inbounds nuw i8, ptr %1, i64 4
  %9 = load i32, ptr %8, align 4
  %10 = getelementptr inbounds nuw i8, ptr %1, i64 8
  %11 = load ptr, ptr %10, align 8
  tail call void @llvm.memset.p0.i64(ptr noundef align 8 dereferenceable(24) %6, i8 0, i64 24, i1 false)
  store i32 %7, ptr %6, align 8
  %12 = icmp eq i32 %9, 0
  br i1 %12, label %copy_address.exit, label %13

13:                                               ; preds = %4
  %14 = sext i32 %9 to i64
  %15 = tail call ptr @wmem_memdup(ptr noundef null, ptr noundef %11, i64 noundef %14) #23
  %16 = getelementptr inbounds nuw i8, ptr %6, i64 16
  store ptr %15, ptr %16, align 8
  %17 = getelementptr inbounds nuw i8, ptr %6, i64 8
  store ptr %15, ptr %17, align 8
  %18 = getelementptr inbounds nuw i8, ptr %6, i64 4
  store i32 %9, ptr %18, align 4
  br label %copy_address.exit

copy_address.exit:                                ; preds = %4, %13
  %19 = getelementptr inbounds nuw i8, ptr %6, i64 24
  %20 = getelementptr inbounds nuw i8, ptr %1, i64 24
  %21 = load i32, ptr %20, align 8
  %22 = getelementptr inbounds nuw i8, ptr %1, i64 28
  %23 = load i32, ptr %22, align 4
  %24 = getelementptr inbounds nuw i8, ptr %1, i64 32
  %25 = load ptr, ptr %24, align 8
  tail call void @llvm.memset.p0.i64(ptr noundef nonnull align 8 dereferenceable(24) %19, i8 0, i64 24, i1 false)
  store i32 %21, ptr %19, align 8
  %26 = icmp eq i32 %23, 0
  br i1 %26, label %copy_address.exit28, label %27

27:                                               ; preds = %copy_address.exit
  %28 = sext i32 %23 to i64
  %29 = tail call ptr @wmem_memdup(ptr noundef null, ptr noundef %25, i64 noundef %28) #23
  %30 = getelementptr inbounds nuw i8, ptr %6, i64 40
  store ptr %29, ptr %30, align 8
  %31 = getelementptr inbounds nuw i8, ptr %6, i64 32
  store ptr %29, ptr %31, align 8
  %32 = getelementptr inbounds nuw i8, ptr %6, i64 28
  store i32 %23, ptr %32, align 4
  br label %copy_address.exit28

copy_address.exit28:                              ; preds = %copy_address.exit, %27
  %33 = tail call ptr @g_string_new(ptr noundef %3)
  %34 = getelementptr inbounds nuw i8, ptr %6, i64 72
  store ptr %33, ptr %34, align 8
  %35 = getelementptr inbounds nuw i8, ptr %6, i64 80
  tail call void @llvm.memcpy.p0.p0.i64(ptr noundef nonnull align 8 dereferenceable(16) %35, ptr noundef align 4 dereferenceable(16) %2, i64 16, i1 false)
  %36 = getelementptr inbounds nuw i8, ptr %2, i64 16
  %37 = load i16, ptr %36, align 4
  %38 = getelementptr inbounds nuw i8, ptr %6, i64 96
  store i16 %37, ptr %38, align 8
  %39 = load ptr, ptr @decode_dcerpc_bindings, align 8
  %40 = tail call ptr @g_slist_append(ptr noundef %39, ptr noundef %6)
  store ptr %40, ptr @decode_dcerpc_bindings, align 8
  ret i1 false
}